; ModuleID = 'source-C-CXX/57/30.c'
source_filename = "source-C-CXX/57/30.c"
target datalayout = "e-m:e-p270:32:32-p271:32:32-p272:64:64-i64:64-f80:128-n8:16:32:64-S128"
target triple = "x86_64-pc-linux-gnu"

@.str = private unnamed_addr constant [4 x i8] c"%d\0A\00", align 1

; Function Attrs: nounwind sspstrong uwtable
define dso_local i32 @main() local_unnamed_addr #0 {
  %1 = alloca i32, align 4
  %2 = alloca [100 x i8*], align 16
  %3 = bitcast i32* %1 to i8*
  call void @llvm.lifetime.start.p0i8(i64 4, i8* nonnull %3) #6
  %4 = call i32 (i8*, ...) @__isoc99_scanf(i8* getelementptr inbounds ([4 x i8], [4 x i8]* @.str, i64 0, i64 0), i32* nonnull %1)
  %5 = bitcast [100 x i8*]* %2 to i8*
  call void @llvm.lifetime.start.p0i8(i64 800, i8* nonnull %5) #6
  %6 = load i32, i32* %1, align 4, !tbaa !5
  %7 = icmp sgt i32 %6, 0
  br i1 %7, label %10, label %58

8:                                                ; preds = %10
  %9 = icmp sgt i32 %16, 0
  br i1 %9, label %19, label %58

10:                                               ; preds = %0, %10
  %11 = phi i64 [ %15, %10 ], [ 0, %0 ]
  %12 = call noalias align 16 dereferenceable_or_null(100) i8* @malloc(i64 100) #6
  %13 = getelementptr inbounds [100 x i8*], [100 x i8*]* %2, i64 0, i64 %11
  store i8* %12, i8** %13, align 8, !tbaa !9
  %14 = call i32 (i8*, ...) bitcast (i32 (...)* @gets to i32 (i8*, ...)*)(i8* %12) #6
  %15 = add nuw nsw i64 %11, 1
  %16 = load i32, i32* %1, align 4, !tbaa !5
  %17 = sext i32 %16 to i64
  %18 = icmp slt i64 %15, %17
  br i1 %18, label %10, label %8, !llvm.loop !11

19:                                               ; preds = %8, %51
  %20 = phi i64 [ %54, %51 ], [ 0, %8 ]
  %21 = phi i32 [ %52, %51 ], [ undef, %8 ]
  %22 = getelementptr inbounds [100 x i8*], [100 x i8*]* %2, i64 0, i64 %20
  %23 = load i8*, i8** %22, align 8, !tbaa !9
  %24 = call i64 @strlen(i8* noundef nonnull dereferenceable(1) %23) #7
  %25 = icmp eq i64 %24, 0
  br i1 %25, label %51, label %26

26:                                               ; preds = %19, %48
  %27 = phi i64 [ %49, %48 ], [ 0, %19 ]
  %28 = getelementptr inbounds i8, i8* %23, i64 %27
  %29 = load i8, i8* %28, align 1, !tbaa !13
  %30 = icmp eq i64 %27, 0
  %31 = add i8 %29, -97
  %32 = icmp ugt i8 %31, 25
  br i1 %30, label %33, label %39

33:                                               ; preds = %26
  br i1 %32, label %34, label %48

34:                                               ; preds = %33
  %35 = add i8 %29, -65
  %36 = icmp ult i8 %35, 26
  %37 = icmp eq i8 %29, 95
  %38 = or i1 %37, %36
  br i1 %38, label %48, label %51

39:                                               ; preds = %26
  br i1 %32, label %40, label %48

40:                                               ; preds = %39
  %41 = add i8 %29, -65
  %42 = icmp ugt i8 %41, 25
  %43 = icmp ne i8 %29, 95
  %44 = and i1 %43, %42
  %45 = add i8 %29, -48
  %46 = icmp ugt i8 %45, 9
  %47 = and i1 %44, %46
  br i1 %47, label %51, label %48

48:                                               ; preds = %33, %34, %40, %39
  %49 = add nuw i64 %27, 1
  %50 = icmp eq i64 %49, %24
  br i1 %50, label %51, label %26, !llvm.loop !14

51:                                               ; preds = %48, %34, %40, %19
  %52 = phi i32 [ %21, %19 ], [ 0, %40 ], [ 0, %34 ], [ 1, %48 ]
  %53 = call i32 (i8*, ...) @printf(i8* nonnull dereferenceable(1) getelementptr inbounds ([4 x i8], [4 x i8]* @.str, i64 0, i64 0), i32 %52)
  %54 = add nuw nsw i64 %20, 1
  %55 = load i32, i32* %1, align 4, !tbaa !5
  %56 = sext i32 %55 to i64
  %57 = icmp slt i64 %54, %56
  br i1 %57, label %19, label %58, !llvm.loop !15

58:                                               ; preds = %51, %0, %8
  call void @llvm.lifetime.end.p0i8(i64 800, i8* nonnull %5) #6
  call void @llvm.lifetime.end.p0i8(i64 4, i8* nonnull %3) #6
  ret i32 0
}

; Function Attrs: argmemonly mustprogress nofree nosync nounwind willreturn
declare void @llvm.lifetime.start.p0i8(i64 immarg, i8* nocapture) #1

; Function Attrs: nofree nounwind
declare noundef i32 @__isoc99_scanf(i8* nocapture noundef readonly, ...) local_unnamed_addr #2

; Function Attrs: inaccessiblememonly mustprogress nofree nounwind willreturn
declare noalias noundef align 16 i8* @malloc(i64 noundef) local_unnamed_addr #3

declare i32 @gets(...) local_unnamed_addr #4

; Function Attrs: argmemonly mustprogress nofree nounwind readonly willreturn
declare i64 @strlen(i8* nocapture) local_unnamed_addr #5

; Function Attrs: nofree nounwind
declare noundef i32 @printf(i8* nocapture noundef readonly, ...) local_unnamed_addr #2

; Function Attrs: argmemonly mustprogress nofree nosync nounwind willreturn
declare void @llvm.lifetime.end.p0i8(i64 immarg, i8* nocapture) #1


!llvm.module.flags = !{!0, !1, !2, !3}
!llvm.ident = !{!4}

!0 = !{i32 1, !"wchar_size", i32 4}
!1 = !{i32 7, !"PIC Level", i32 2}
!2 = !{i32 7, !"PIE Level", i32 2}
!3 = !{i32 7, !"uwtable", i32 1}
!4 = !{!"clang version 13.0.0"}
!5 = !{!6, !6, i64 0}
!6 = !{!"int", !7, i64 0}
!7 = !{!"omnipotent char", !8, i64 0}
!8 = !{!"Simple C/C++ TBAA"}
!9 = !{!10, !10, i64 0}
!10 = !{!"any pointer", !7, i64 0}
!11 = distinct !{!11, !12}
!12 = !{!"llvm.loop.mustprogress"}
!13 = !{!7, !7, i64 0}
!14 = distinct !{!14, !12}
!15 = distinct !{!15, !12}
